
add_test.elf:     file format elf32-littleriscv


Disassembly of section .text:

00000000 <_start>:
   0:	10000093          	li	ra,256
   4:	10100113          	li	sp,257
   8:	002081b3          	add	gp,ra,sp
   c:	20100213          	li	tp,513
  10:	14419063          	bne	gp,tp,150 <test_fail>
  14:	10100093          	li	ra,257
  18:	10000113          	li	sp,256
  1c:	002081b3          	add	gp,ra,sp
  20:	20100213          	li	tp,513
  24:	12419663          	bne	gp,tp,150 <test_fail>
  28:	10200093          	li	ra,258
  2c:	15300113          	li	sp,339
  30:	002081b3          	add	gp,ra,sp
  34:	25500213          	li	tp,597
  38:	10419c63          	bne	gp,tp,150 <test_fail>
  3c:	15300093          	li	ra,339
  40:	10200113          	li	sp,258
  44:	002081b3          	add	gp,ra,sp
  48:	25500213          	li	tp,597
  4c:	10419263          	bne	gp,tp,150 <test_fail>
  50:	10300093          	li	ra,259
  54:	17e00113          	li	sp,382
  58:	002081b3          	add	gp,ra,sp
  5c:	28100213          	li	tp,641
  60:	0e419863          	bne	gp,tp,150 <test_fail>
  64:	17e00093          	li	ra,382
  68:	10300113          	li	sp,259
  6c:	002081b3          	add	gp,ra,sp
  70:	28100213          	li	tp,641
  74:	0c419e63          	bne	gp,tp,150 <test_fail>
  78:	13800093          	li	ra,312
  7c:	1a100113          	li	sp,417
  80:	002081b3          	add	gp,ra,sp
  84:	2d900213          	li	tp,729
  88:	0c419463          	bne	gp,tp,150 <test_fail>
  8c:	1a100093          	li	ra,417
  90:	13800113          	li	sp,312
  94:	002081b3          	add	gp,ra,sp
  98:	2d900213          	li	tp,729
  9c:	0a419a63          	bne	gp,tp,150 <test_fail>
  a0:	15000093          	li	ra,336
  a4:	1a400113          	li	sp,420
  a8:	002081b3          	add	gp,ra,sp
  ac:	2f400213          	li	tp,756
  b0:	0a419063          	bne	gp,tp,150 <test_fail>
  b4:	1a400093          	li	ra,420
  b8:	15000113          	li	sp,336
  bc:	002081b3          	add	gp,ra,sp
  c0:	2f400213          	li	tp,756
  c4:	08419663          	bne	gp,tp,150 <test_fail>
  c8:	1ab00093          	li	ra,427
  cc:	1c800113          	li	sp,456
  d0:	002081b3          	add	gp,ra,sp
  d4:	37300213          	li	tp,883
  d8:	06419c63          	bne	gp,tp,150 <test_fail>
  dc:	1c800093          	li	ra,456
  e0:	1ab00113          	li	sp,427
  e4:	002081b3          	add	gp,ra,sp
  e8:	37300213          	li	tp,883
  ec:	06419263          	bne	gp,tp,150 <test_fail>
  f0:	1fc00093          	li	ra,508
  f4:	1fc00113          	li	sp,508
  f8:	002081b3          	add	gp,ra,sp
  fc:	3f800213          	li	tp,1016
 100:	04419863          	bne	gp,tp,150 <test_fail>
 104:	1fc00093          	li	ra,508
 108:	1fc00113          	li	sp,508
 10c:	002081b3          	add	gp,ra,sp
 110:	3f800213          	li	tp,1016
 114:	02419e63          	bne	gp,tp,150 <test_fail>
 118:	10000093          	li	ra,256
 11c:	50000113          	li	sp,1280
 120:	002081b3          	add	gp,ra,sp
 124:	60000213          	li	tp,1536
 128:	50000093          	li	ra,1280
 12c:	10000113          	li	sp,256
 130:	002081b3          	add	gp,ra,sp
 134:	60000213          	li	tp,1536
 138:	00001537          	lui	a0,0x1
 13c:	20151073          	csrw	0x202,a0
 140:	202025f3          	csrr	a1,0x202

00000144 <test_pass>:
 144:	0000c537          	lui	a0,0xc
 148:	abe50513          	addi	a0,a0,-1346 # babe <end+0xb962>
 14c:	0100006f          	j	15c <end>

00000150 <test_fail>:
 150:	0000e537          	lui	a0,0xe
 154:	ead50513          	addi	a0,a0,-339 # dead <end+0xdd51>
 158:	0040006f          	j	15c <end>

0000015c <end>:
 15c:	0000006f          	j	15c <end>
